ARM GAS  C:\Users\johan\AppData\Local\Temp\cc673VRW.s 			page 1


   1              		.syntax unified
   2              		.cpu cortex-m3
   3              		.fpu softvfp
   4              		.eabi_attribute 20, 1
   5              		.eabi_attribute 21, 1
   6              		.eabi_attribute 23, 3
   7              		.eabi_attribute 24, 1
   8              		.eabi_attribute 25, 1
   9              		.eabi_attribute 26, 1
  10              		.eabi_attribute 30, 1
  11              		.eabi_attribute 34, 1
  12              		.eabi_attribute 18, 4
  13              		.thumb
  14              		.syntax unified
  15              		.file	"main.c"
  16              		.text
  17              	.Ltext0:
  18              		.cfi_sections	.debug_frame
  19              		.section	.text.motor_turn_left,"ax",%progbits
  20              		.align	2
  21              		.global	motor_turn_left
  22              		.thumb
  23              		.thumb_func
  24              		.type	motor_turn_left, %function
  25              	motor_turn_left:
  26              	.LFB85:
  27              		.file 1 "main.c"
   1:main.c        **** /**
   2:main.c        **** * @mainpage ZumoBot Project
   3:main.c        **** * @brief    You can make your own ZumoBot with various sensors.
   4:main.c        **** * @details  <br><br>
   5:main.c        ****     <p>
   6:main.c        ****     <B>General</B><br>
   7:main.c        ****     You will use Pololu Zumo Shields for your robot project with CY8CKIT-059(PSoC 5LP) from Cypress
   8:main.c        ****     library has basic methods of various sensors and communications so that you can make what you w
   9:main.c        ****     <br><br>
  10:main.c        ****     </p>
  11:main.c        ****     
  12:main.c        ****     <p>
  13:main.c        ****     <B>Sensors</B><br>
  14:main.c        ****     &nbsp;Included: <br>
  15:main.c        ****         &nbsp;&nbsp;&nbsp;&nbsp;LSM303D: Accelerometer & Magnetometer<br>
  16:main.c        ****         &nbsp;&nbsp;&nbsp;&nbsp;L3GD20H: Gyroscope<br>
  17:main.c        ****         &nbsp;&nbsp;&nbsp;&nbsp;Reflectance sensor<br>
  18:main.c        ****         &nbsp;&nbsp;&nbsp;&nbsp;Motors
  19:main.c        ****     &nbsp;Wii nunchuck<br>
  20:main.c        ****     &nbsp;TSOP-2236: IR Receiver<br>
  21:main.c        ****     &nbsp;HC-SR04: Ultrasonic sensor<br>
  22:main.c        ****     &nbsp;APDS-9301: Ambient light sensor<br>
  23:main.c        ****     &nbsp;IR LED <br><br><br>
  24:main.c        ****     </p>
  25:main.c        ****     
  26:main.c        ****     <p>
  27:main.c        ****     <B>Communication</B><br>
  28:main.c        ****     I2C, UART, Serial<br>
  29:main.c        ****     </p>
  30:main.c        **** */
ARM GAS  C:\Users\johan\AppData\Local\Temp\cc673VRW.s 			page 2


  31:main.c        **** 
  32:main.c        **** #include <project.h>
  33:main.c        **** #include <stdio.h>
  34:main.c        **** #include "FreeRTOS.h"
  35:main.c        **** #include "task.h"
  36:main.c        **** #include "Motor.h"
  37:main.c        **** #include "Ultra.h"
  38:main.c        **** #include "Nunchuk.h"
  39:main.c        **** #include "Reflectance.h"
  40:main.c        **** #include "Gyro.h"
  41:main.c        **** #include "Accel_magnet.h"
  42:main.c        **** #include "LSM303D.h"
  43:main.c        **** #include "IR.h"
  44:main.c        **** #include "Beep.h"
  45:main.c        **** #include "mqtt_sender.h"
  46:main.c        **** #include <time.h>
  47:main.c        **** #include <sys/time.h>
  48:main.c        **** #include "serial1.h"
  49:main.c        **** #include <unistd.h>
  50:main.c        **** /**
  51:main.c        ****  * @file    main.c
  52:main.c        ****  * @brief   
  53:main.c        ****  * @details  ** Enable global interrupt since Zumo library uses interrupts. **<br>&nbsp;&nbsp;&nbsp
  54:main.c        **** */
  55:main.c        **** // MOTOR TURNS LEFT (LEFT WHEEL GOING BACKWARDS)
  56:main.c        **** void motor_turn_left(uint8 l_speed, uint8 r_speed, uint32 delay)
  57:main.c        **** {
  28              		.loc 1 57 0
  29              		.cfi_startproc
  30              		@ args = 0, pretend = 0, frame = 0
  31              		@ frame_needed = 0, uses_anonymous_args = 0
  32              	.LVL0:
  33 0000 70B5     		push	{r4, r5, r6, lr}
  34              		.cfi_def_cfa_offset 16
  35              		.cfi_offset 4, -16
  36              		.cfi_offset 5, -12
  37              		.cfi_offset 6, -8
  38              		.cfi_offset 14, -4
  39 0002 0646     		mov	r6, r0
  40 0004 0D46     		mov	r5, r1
  41 0006 1446     		mov	r4, r2
  58:main.c        ****     MotorDirLeft_Write(1);
  42              		.loc 1 58 0
  43 0008 0120     		movs	r0, #1
  44              	.LVL1:
  45 000a FFF7FEFF 		bl	MotorDirLeft_Write
  46              	.LVL2:
  59:main.c        ****     MotorDirRight_Write(0);
  47              		.loc 1 59 0
  48 000e 0020     		movs	r0, #0
  49 0010 FFF7FEFF 		bl	MotorDirRight_Write
  50              	.LVL3:
  60:main.c        ****     PWM_WriteCompare1(l_speed); 
  51              		.loc 1 60 0
  52 0014 3046     		mov	r0, r6
  53 0016 FFF7FEFF 		bl	PWM_WriteCompare1
  54              	.LVL4:
ARM GAS  C:\Users\johan\AppData\Local\Temp\cc673VRW.s 			page 3


  61:main.c        ****     PWM_WriteCompare2(r_speed); 
  55              		.loc 1 61 0
  56 001a 2846     		mov	r0, r5
  57 001c FFF7FEFF 		bl	PWM_WriteCompare2
  58              	.LVL5:
  62:main.c        ****     vTaskDelay(delay);
  59              		.loc 1 62 0
  60 0020 2046     		mov	r0, r4
  61 0022 FFF7FEFF 		bl	vTaskDelay
  62              	.LVL6:
  63 0026 70BD     		pop	{r4, r5, r6, pc}
  64              		.cfi_endproc
  65              	.LFE85:
  66              		.size	motor_turn_left, .-motor_turn_left
  67              		.section	.text.motor_turn_right,"ax",%progbits
  68              		.align	2
  69              		.global	motor_turn_right
  70              		.thumb
  71              		.thumb_func
  72              		.type	motor_turn_right, %function
  73              	motor_turn_right:
  74              	.LFB86:
  63:main.c        **** }
  64:main.c        **** // MOTOR TURNS RIGHT (RIGHT WHEEL GOING BACKWARDS)
  65:main.c        **** void motor_turn_right(uint8 l_speed, uint8 r_speed, uint32 delay)
  66:main.c        **** {
  75              		.loc 1 66 0
  76              		.cfi_startproc
  77              		@ args = 0, pretend = 0, frame = 0
  78              		@ frame_needed = 0, uses_anonymous_args = 0
  79              	.LVL7:
  80 0000 70B5     		push	{r4, r5, r6, lr}
  81              		.cfi_def_cfa_offset 16
  82              		.cfi_offset 4, -16
  83              		.cfi_offset 5, -12
  84              		.cfi_offset 6, -8
  85              		.cfi_offset 14, -4
  86 0002 0646     		mov	r6, r0
  87 0004 0D46     		mov	r5, r1
  88 0006 1446     		mov	r4, r2
  67:main.c        ****     MotorDirLeft_Write(0);
  89              		.loc 1 67 0
  90 0008 0020     		movs	r0, #0
  91              	.LVL8:
  92 000a FFF7FEFF 		bl	MotorDirLeft_Write
  93              	.LVL9:
  68:main.c        ****     MotorDirRight_Write(1);
  94              		.loc 1 68 0
  95 000e 0120     		movs	r0, #1
  96 0010 FFF7FEFF 		bl	MotorDirRight_Write
  97              	.LVL10:
  69:main.c        ****     PWM_WriteCompare1(l_speed); 
  98              		.loc 1 69 0
  99 0014 3046     		mov	r0, r6
 100 0016 FFF7FEFF 		bl	PWM_WriteCompare1
 101              	.LVL11:
  70:main.c        ****     PWM_WriteCompare2(r_speed); 
ARM GAS  C:\Users\johan\AppData\Local\Temp\cc673VRW.s 			page 4


 102              		.loc 1 70 0
 103 001a 2846     		mov	r0, r5
 104 001c FFF7FEFF 		bl	PWM_WriteCompare2
 105              	.LVL12:
  71:main.c        ****     vTaskDelay(delay);
 106              		.loc 1 71 0
 107 0020 2046     		mov	r0, r4
 108 0022 FFF7FEFF 		bl	vTaskDelay
 109              	.LVL13:
 110 0026 70BD     		pop	{r4, r5, r6, pc}
 111              		.cfi_endproc
 112              	.LFE86:
 113              		.size	motor_turn_right, .-motor_turn_right
 114              		.global	__aeabi_f2iz
 115              		.global	__aeabi_i2f
 116              		.global	__aeabi_fcmpeq
 117              		.global	__aeabi_fadd
 118              		.global	__aeabi_fcmple
 119              		.global	__aeabi_fcmpgt
 120              		.global	__aeabi_f2d
 121              		.section	.text.zmain,"ax",%progbits
 122              		.align	2
 123              		.global	zmain
 124              		.thumb
 125              		.thumb_func
 126              		.type	zmain, %function
 127              	zmain:
 128              	.LFB87:
  72:main.c        **** }
  73:main.c        **** #if 0
  74:main.c        **** // Hello World!
  75:main.c        **** void zmain(void)
  76:main.c        **** {
  77:main.c        ****     printf("\nHello, World!\n");
  78:main.c        **** 
  79:main.c        ****     while(true)
  80:main.c        ****     {
  81:main.c        ****         vTaskDelay(100); // sleep (in an infinite loop)
  82:main.c        ****     }
  83:main.c        ****  }   
  84:main.c        **** #endif
  85:main.c        **** 
  86:main.c        **** #if 0
  87:main.c        ****  // Assigment 2
  88:main.c        ****     
  89:main.c        **** // Name and age
  90:main.c        **** void zmain(void)
  91:main.c        **** {
  92:main.c        ****     //char name[32];
  93:main.c        ****     int age=0, start_time=0, end_time=0;
  94:main.c        ****     int time;
  95:main.c        ****     
  96:main.c        ****     
  97:main.c        ****     printf("\n\n");
  98:main.c        ****     
  99:main.c        ****     //printf("Enter your name: ");
 100:main.c        ****     //fflush(stdout);
ARM GAS  C:\Users\johan\AppData\Local\Temp\cc673VRW.s 			page 5


 101:main.c        ****     //scanf("%s", name);
 102:main.c        ****     start_time= xTaskGetTickCount();
 103:main.c        ****     printf("Enter your age: ");
 104:main.c        ****     //fflush(stdout);
 105:main.c        ****     scanf("%d", &age);
 106:main.c        ****     //printf("age = %d",age);
 107:main.c        ****     end_time = xTaskGetTickCount();
 108:main.c        ****     time = end_time - start_time;
 109:main.c        ****      if(age <= 21){
 110:main.c        ****         if(time < 3000){
 111:main.c        ****             printf("Super fast dude!");
 112:main.c        ****         }else if(time>=3000 && time<5000){
 113:main.c        ****              printf("So mediocre.");
 114:main.c        ****         }else if (time> 5000){
 115:main.c        ****             printf("My granny is faster than you!");
 116:main.c        ****         }
 117:main.c        ****         else {
 118:main.c        ****             printf("Time error");
 119:main.c        ****         }
 120:main.c        ****     } else if (age >= 22 && age <=50){
 121:main.c        ****         if(time < 3000){
 122:main.c        ****             printf("Be quick or be dead");
 123:main.c        ****         }else if(time>=3000 && time<5000){
 124:main.c        ****              printf("Youre so average.");
 125:main.c        ****         }else if (time> 5000){
 126:main.c        ****             printf("Have you been smoking something illegal?");
 127:main.c        ****         }
 128:main.c        ****         else {
 129:main.c        ****             printf("Time error");
 130:main.c        ****         }
 131:main.c        ****     } else if(age>50){
 132:main.c        ****         
 133:main.c        ****         if(time < 3000){
 134:main.c        ****             printf("Still going strong");
 135:main.c        ****         }else if(time >= 3000 && time<5000){
 136:main.c        ****              printf("You are doing ok for your age.");
 137:main.c        ****         }else if (time> 5000){
 138:main.c        ****             printf("Do they still allow youto drive?");
 139:main.c        ****         }
 140:main.c        ****         else {
 141:main.c        ****             printf("Time error");
 142:main.c        ****         }
 143:main.c        ****     }else {
 144:main.c        ****         printf("Problem with age");
 145:main.c        ****     }
 146:main.c        ****     
 147:main.c        ****     
 148:main.c        ****     //printf("You are [%s], age = %d\n", name, age);
 149:main.c        ****     
 150:main.c        ****     // bugg nothing after the bug will be printed. 
 151:main.c        ****     printf("\n");
 152:main.c        ****     
 153:main.c        ****     
 154:main.c        ****     while(true)
 155:main.c        ****     {
 156:main.c        ****         BatteryLed_Write(!SW1_Read());
 157:main.c        ****         vTaskDelay(100);
ARM GAS  C:\Users\johan\AppData\Local\Temp\cc673VRW.s 			page 6


 158:main.c        ****     }
 159:main.c        ****     
 160:main.c        ****  }   
 161:main.c        **** #endif
 162:main.c        **** 
 163:main.c        **** //Assigment 3
 164:main.c        **** #if 0
 165:main.c        **** //battery level//
 166:main.c        **** void zmain(void)
 167:main.c        **** {
 168:main.c        ****     ADC_Battery_Start();        
 169:main.c        **** 
 170:main.c        ****     int16 adcresult =0;
 171:main.c        ****     float volts = 0.0;
 172:main.c        **** 
 173:main.c        ****     printf("\nBoot\n");
 174:main.c        **** 
 175:main.c        ****     BatteryLed_Write(1); // Switch led on 
 176:main.c        ****     //BatteryLed_Write(0); // Switch led off 
 177:main.c        ****     //uint8 button;
 178:main.c        ****     //button = SW1_Read(); // read SW1 on pSoC board
 179:main.c        ****     // SW1_Read() returns zero when button is pressed
 180:main.c        ****     // SW1_Read() returns one when button is not pressed
 181:main.c        **** 
 182:main.c        ****     for(;;)
 183:main.c        ****     {
 184:main.c        ****         //char msg[80];
 185:main.c        ****         float total_values;
 186:main.c        ****         bool led = false;
 187:main.c        ****         BatteryLed_Write(led);
 188:main.c        ****         ADC_Battery_StartConvert(); // start sampling
 189:main.c        ****         if(ADC_Battery_IsEndConversion(ADC_Battery_WAIT_FOR_RESULT)) {   // wait for ADC converted 
 190:main.c        ****             adcresult = ADC_Battery_GetResult16(); // get the ADC value (0 - 4095)
 191:main.c        ****             // convert value to Volts
 192:main.c        ****             total_values = 4095/(5*(3.0/2.0));
 193:main.c        ****             volts = adcresult/total_values;
 194:main.c        ****             // you need to implement the conversion
 195:main.c        ****             
 196:main.c        ****             if(volts < 4){
 197:main.c        ****                 do{
 198:main.c        ****                     BatteryLed_Write(led);
 199:main.c        ****                     vTaskDelay(500);
 200:main.c        ****                     BatteryLed_Write(!led);
 201:main.c        ****                     vTaskDelay(500);
 202:main.c        ****                     printf("adc= %d volts= %f\r\n",adcresult, volts);
 203:main.c        ****                 }while(SW1_Read());
 204:main.c        ****                 
 205:main.c        ****             }
 206:main.c        ****             // Print both ADC results and converted value
 207:main.c        ****             printf("adc= %d volts= %f\r\n",adcresult, volts);
 208:main.c        ****         }
 209:main.c        ****         vTaskDelay(500);
 210:main.c        ****     }
 211:main.c        ****  }   
 212:main.c        **** #endif
 213:main.c        **** 
 214:main.c        **** 
ARM GAS  C:\Users\johan\AppData\Local\Temp\cc673VRW.s 			page 7


 215:main.c        **** #if 0
 216:main.c        **** // button
 217:main.c        **** void zmain(void)
 218:main.c        **** {
 219:main.c        ****     while(1) {
 220:main.c        ****         printf("Press button within 5 seconds!\n");
 221:main.c        ****         int i = 50;
 222:main.c        ****         while(i > 0) {
 223:main.c        ****             if(SW1_Read() == 0) {
 224:main.c        ****                 break;
 225:main.c        ****             }
 226:main.c        ****             vTaskDelay(100);
 227:main.c        ****             --i;
 228:main.c        ****         }
 229:main.c        ****         if(i > 0) {
 230:main.c        ****             printf("Good work\n");
 231:main.c        ****             while(SW1_Read() == 0) vTaskDelay(10); // wait until button is released
 232:main.c        ****         }
 233:main.c        ****         else {
 234:main.c        ****             printf("You didn't press the button\n");
 235:main.c        ****         }
 236:main.c        ****     }
 237:main.c        **** }
 238:main.c        **** #endif
 239:main.c        **** // Assigment 1
 240:main.c        **** #if 0
 241:main.c        **** // button
 242:main.c        **** void zmain(void)
 243:main.c        **** {
 244:main.c        ****     printf("\nBoot\n");
 245:main.c        **** 
 246:main.c        ****    //BatteryLed_Write(1); // Switch led on 
 247:main.c        ****     BatteryLed_Write(0); // Switch led off 
 248:main.c        ****     
 249:main.c        ****     //uint8 button;
 250:main.c        ****     //button = SW1_Read(); // read SW1 on pSoC board
 251:main.c        ****     // SW1_Read() returns zero when button is pressed
 252:main.c        ****     // SW1_Read() returns one when button is not pressed
 253:main.c        ****     
 254:main.c        ****     bool led = false;
 255:main.c        ****     
 256:main.c        ****     for(;;)
 257:main.c        ****     {
 258:main.c        ****         // toggle led state when button is pressed
 259:main.c        ****         if(SW1_Read() == 0) {
 260:main.c        ****             led = !led;
 261:main.c        ****             BatteryLed_Write(led);
 262:main.c        ****             if(led){ 
 263:main.c        ****                 printf("Led is ON\n");
 264:main.c        ****                  BatteryLed_Write(led);
 265:main.c        ****                 vTaskDelay(500);
 266:main.c        ****                 BatteryLed_Write(!led);
 267:main.c        ****                 vTaskDelay(500);
 268:main.c        ****                 BatteryLed_Write(led);
 269:main.c        ****                 vTaskDelay(500);
 270:main.c        ****                 BatteryLed_Write(!led);
 271:main.c        ****                 vTaskDelay(500);
ARM GAS  C:\Users\johan\AppData\Local\Temp\cc673VRW.s 			page 8


 272:main.c        ****                 BatteryLed_Write(led);
 273:main.c        ****                 vTaskDelay(500);
 274:main.c        ****                 BatteryLed_Write(!led);
 275:main.c        ****                 vTaskDelay(500);
 276:main.c        ****                 // Long blinks 1,5s
 277:main.c        ****                 BatteryLed_Write(led);
 278:main.c        ****                 vTaskDelay(1500);
 279:main.c        ****                 BatteryLed_Write(!led);
 280:main.c        ****                 vTaskDelay(500);
 281:main.c        ****                 BatteryLed_Write(led);
 282:main.c        ****                 vTaskDelay(1500);
 283:main.c        ****                 BatteryLed_Write(!led);
 284:main.c        ****                 vTaskDelay(500);
 285:main.c        ****                 BatteryLed_Write(led);
 286:main.c        ****                 vTaskDelay(1500);
 287:main.c        ****                 BatteryLed_Write(!led);
 288:main.c        ****                 vTaskDelay(500);
 289:main.c        ****                 // Short blink 0,5s
 290:main.c        ****                 BatteryLed_Write(led);
 291:main.c        ****                 vTaskDelay(500);
 292:main.c        ****                 BatteryLed_Write(!led);
 293:main.c        ****                 vTaskDelay(500);
 294:main.c        ****                 BatteryLed_Write(led);
 295:main.c        ****                 vTaskDelay(500);
 296:main.c        ****                 BatteryLed_Write(!led);
 297:main.c        ****                 vTaskDelay(500);
 298:main.c        ****                 BatteryLed_Write(led);
 299:main.c        ****                 vTaskDelay(500);
 300:main.c        ****                 BatteryLed_Write(!led);
 301:main.c        ****                 vTaskDelay(500);
 302:main.c        ****                 led=!led;
 303:main.c        ****                 continue; 
 304:main.c        ****                 
 305:main.c        ****             }
 306:main.c        ****             else{
 307:main.c        ****                 printf("Led is OFF\n");
 308:main.c        ****            // Beep(1000, 150);
 309:main.c        ****                
 310:main.c        ****                 
 311:main.c        ****                 }
 312:main.c        ****             while(SW1_Read() == 0) vTaskDelay(10); // wait while button is being pressed
 313:main.c        ****         }        
 314:main.c        ****     }
 315:main.c        ****  }   
 316:main.c        **** 
 317:main.c        **** 
 318:main.c        **** #endif
 319:main.c        **** 
 320:main.c        **** // Assigment 2 week 3 
 321:main.c        **** #if 0
 322:main.c        **** //ultrasonic sensor//
 323:main.c        **** void zmain(void)
 324:main.c        **** {
 325:main.c        ****     Ultra_Start();                          // Ultra Sonic Start function
 326:main.c        ****     motor_start();
 327:main.c        ****      
 328:main.c        ****    
ARM GAS  C:\Users\johan\AppData\Local\Temp\cc673VRW.s 			page 9


 329:main.c        ****     while(1) {
 330:main.c        ****         motor_forward(100,100);
 331:main.c        ****         int d = Ultra_GetDistance();
 332:main.c        ****         if(d < 10){
 333:main.c        ****             Beep(100,100);
 334:main.c        ****             motor_backward(0,0);
 335:main.c        ****             motor_turn(100,50,2000);
 336:main.c        ****             motor_forward(0,0);
 337:main.c        ****             continue;
 338:main.c        ****         }
 339:main.c        ****         
 340:main.c        ****         // Print the detected distance (centimeters)
 341:main.c        ****         printf("distance = %d\r\n", d);
 342:main.c        ****         vTaskDelay(200);
 343:main.c        ****         
 344:main.c        ****     }
 345:main.c        **** }   
 346:main.c        **** #endif
 347:main.c        **** 
 348:main.c        **** #if 0
 349:main.c        **** //IR receiverm - how to wait for IR remote commands
 350:main.c        **** void zmain(void)
 351:main.c        **** {
 352:main.c        ****     IR_Start();
 353:main.c        ****     
 354:main.c        ****     printf("\n\nIR test\n");
 355:main.c        ****     
 356:main.c        ****     IR_flush(); // clear IR receive buffer
 357:main.c        ****     printf("Buffer cleared\n");
 358:main.c        ****     
 359:main.c        ****     bool led = false;
 360:main.c        ****     // Toggle led when IR signal is received
 361:main.c        ****     for(;;)
 362:main.c        ****     {
 363:main.c        ****         IR_wait();  // wait for IR command
 364:main.c        ****         led = !led;
 365:main.c        ****         BatteryLed_Write(led);
 366:main.c        ****         if(led) printf("Led is ON\n");
 367:main.c        ****         else printf("Led is OFF\n");
 368:main.c        ****     }    
 369:main.c        ****  }   
 370:main.c        **** #endif
 371:main.c        **** 
 372:main.c        **** 
 373:main.c        **** 
 374:main.c        **** #if 0
 375:main.c        **** //IR receiver - read raw data
 376:main.c        **** void zmain(void)
 377:main.c        **** {
 378:main.c        ****     IR_Start();
 379:main.c        ****     
 380:main.c        ****     uint32_t IR_val; 
 381:main.c        ****     
 382:main.c        ****     printf("\n\nIR test\n");
 383:main.c        ****     
 384:main.c        ****     IR_flush(); // clear IR receive buffer
 385:main.c        ****     printf("Buffer cleared\n");
ARM GAS  C:\Users\johan\AppData\Local\Temp\cc673VRW.s 			page 10


 386:main.c        ****     
 387:main.c        ****     // print received IR pulses and their lengths
 388:main.c        ****     for(;;)
 389:main.c        ****     {
 390:main.c        ****         if(IR_get(&IR_val, portMAX_DELAY)) {
 391:main.c        ****             int l = IR_val & IR_SIGNAL_MASK; // get pulse length
 392:main.c        ****             int b = 0;
 393:main.c        ****             if((IR_val & IR_SIGNAL_HIGH) != 0) b = 1; // get pulse state (0/1)
 394:main.c        ****             printf("%d %d\r\n",b, l);
 395:main.c        ****         }
 396:main.c        ****     }    
 397:main.c        ****  }   
 398:main.c        **** #endif
 399:main.c        **** 
 400:main.c        **** 
 401:main.c        **** #if 1
 402:main.c        **** //reflectance
 403:main.c        **** void zmain(void)
 404:main.c        **** { 
 129              		.loc 1 404 0
 130              		.cfi_startproc
 131              		@ args = 0, pretend = 0, frame = 24
 132              		@ frame_needed = 0, uses_anonymous_args = 0
 133 0000 2DE9F041 		push	{r4, r5, r6, r7, r8, lr}
 134              		.cfi_def_cfa_offset 24
 135              		.cfi_offset 4, -24
 136              		.cfi_offset 5, -20
 137              		.cfi_offset 6, -16
 138              		.cfi_offset 7, -12
 139              		.cfi_offset 8, -8
 140              		.cfi_offset 14, -4
 141 0004 8AB0     		sub	sp, sp, #40
 142              		.cfi_def_cfa_offset 64
 143              	.LVL14:
 405:main.c        ****     float mustan_lasku = 0;
 406:main.c        ****     enum state{START, STOP};
 407:main.c        ****     enum state robot_state = STOP;
 408:main.c        ****     bool increment_mustan_lasku = true;
 409:main.c        ****     struct sensors_ ref;
 410:main.c        ****     struct sensors_ dig;
 411:main.c        ****     // Eka tehtävä pysähdys_kohta = 4  toka = 2
 412:main.c        ****     int pysahdys_kohta = 5;
 413:main.c        ****    
 414:main.c        ****     reflectance_start();
 144              		.loc 1 414 0
 145 0006 FFF7FEFF 		bl	reflectance_start
 146              	.LVL15:
 415:main.c        ****     reflectance_set_threshold(9000, 9000, 11000, 11000, 9000, 9000); // set center sensor threshold
 147              		.loc 1 415 0
 148 000a 42F22830 		movw	r0, #9000
 149 000e 0190     		str	r0, [sp, #4]
 150 0010 0090     		str	r0, [sp]
 151 0012 42F6F823 		movw	r3, #11000
 152 0016 1A46     		mov	r2, r3
 153 0018 0146     		mov	r1, r0
 154 001a FFF7FEFF 		bl	reflectance_set_threshold
 155              	.LVL16:
ARM GAS  C:\Users\johan\AppData\Local\Temp\cc673VRW.s 			page 11


 408:main.c        ****     struct sensors_ ref;
 156              		.loc 1 408 0
 157 001e 4FF00108 		mov	r8, #1
 407:main.c        ****     bool increment_mustan_lasku = true;
 158              		.loc 1 407 0
 159 0022 4446     		mov	r4, r8
 405:main.c        ****     enum state{START, STOP};
 160              		.loc 1 405 0
 161 0024 0025     		movs	r5, #0
 162              	.LVL17:
 163              	.L27:
 416:main.c        ****     
 417:main.c        ****     for(;;)
 418:main.c        ****     {
 419:main.c        ****         // read raw sensor values
 420:main.c        ****         reflectance_read(&ref);
 164              		.loc 1 420 0
 165 0026 07A8     		add	r0, sp, #28
 166 0028 FFF7FEFF 		bl	reflectance_read
 167              	.LVL18:
 421:main.c        ****         // print out each period of reflectance sensors
 422:main.c        ****         //printf("%5d %5d %5d %5d %5d %5d\r\n", ref.l3, ref.l2, ref.l1, ref.r1, ref.r2, ref.r3);   
 423:main.c        ****         
 424:main.c        ****         // read digital values that are based on threshold. 0 = white, 1 = black
 425:main.c        ****         // when blackness value is over threshold the sensors reads 1, otherwise 0
 426:main.c        ****         reflectance_digital(&dig); 
 168              		.loc 1 426 0
 169 002c 04A8     		add	r0, sp, #16
 170 002e FFF7FEFF 		bl	reflectance_digital
 171              	.LVL19:
 427:main.c        ****         //print out 0 or 1 according to results of reflectance period
 428:main.c        ****         printf("%5d %5d %5d %5d %5d %5d \r\n", dig.l3, dig.l2, dig.l1, dig.r1, dig.r2, dig.r3);    
 172              		.loc 1 428 0
 173 0032 BDF81010 		ldrh	r1, [sp, #16]
 174 0036 BDF81220 		ldrh	r2, [sp, #18]
 175 003a BDF81430 		ldrh	r3, [sp, #20]
 176 003e BDF81600 		ldrh	r0, [sp, #22]
 177 0042 BDF81870 		ldrh	r7, [sp, #24]
 178 0046 BDF81A60 		ldrh	r6, [sp, #26]
 179 004a 0296     		str	r6, [sp, #8]
 180 004c 0197     		str	r7, [sp, #4]
 181 004e 0090     		str	r0, [sp]
 182 0050 8748     		ldr	r0, .L35
 183 0052 FFF7FEFF 		bl	printf
 184              	.LVL20:
 429:main.c        ****         //motor_forward(100,50);
 430:main.c        **** 
 431:main.c        ****         //MOOTORI KÄYNTIIN JA PÄÄLLE NAPIN PAINETTUA
 432:main.c        ****         if (SW1_Read() == 0){
 185              		.loc 1 432 0
 186 0056 FFF7FEFF 		bl	SW1_Read
 187              	.LVL21:
 188 005a 80B9     		cbnz	r0, .L6
 433:main.c        ****             printf("\r\nstate before: %d\r\n", robot_state);
 189              		.loc 1 433 0
 190 005c 2146     		mov	r1, r4
 191 005e 8548     		ldr	r0, .L35+4
ARM GAS  C:\Users\johan\AppData\Local\Temp\cc673VRW.s 			page 12


 192 0060 FFF7FEFF 		bl	printf
 193              	.LVL22:
 434:main.c        ****             if(robot_state == STOP){
 194              		.loc 1 434 0
 195 0064 1CB1     		cbz	r4, .L7
 435:main.c        ****                 motor_start();
 196              		.loc 1 435 0
 197 0066 FFF7FEFF 		bl	motor_start
 198              	.LVL23:
 436:main.c        ****                 robot_state = START;
 199              		.loc 1 436 0
 200 006a 0024     		movs	r4, #0
 201 006c 03E0     		b	.L8
 202              	.LVL24:
 203              	.L7:
 437:main.c        ****             }
 438:main.c        ****             else if(robot_state == START){
 204              		.loc 1 438 0
 205 006e 14B9     		cbnz	r4, .L8
 439:main.c        ****                 motor_stop();
 206              		.loc 1 439 0
 207 0070 FFF7FEFF 		bl	motor_stop
 208              	.LVL25:
 440:main.c        ****                 robot_state = STOP;
 209              		.loc 1 440 0
 210 0074 0124     		movs	r4, #1
 211              	.LVL26:
 212              	.L8:
 441:main.c        ****             }
 442:main.c        ****             printf("\r\nstate after: %d\r\n", robot_state);
 213              		.loc 1 442 0
 214 0076 2146     		mov	r1, r4
 215 0078 7F48     		ldr	r0, .L35+8
 216 007a FFF7FEFF 		bl	printf
 217              	.LVL27:
 218              	.L6:
 443:main.c        ****         }
 444:main.c        ****         
 445:main.c        ****        
 446:main.c        ****         // KAIKKI VALKOISET
 447:main.c        ****         if(dig.l3 == 0 && dig.l2 == 0 && dig.l1 == 0 && dig.r1 == 0 && dig.r2 == 0 && dig.r3 == 0 &
 219              		.loc 1 447 0
 220 007e BDF81030 		ldrh	r3, [sp, #16]
 221 0082 9BB9     		cbnz	r3, .L9
 222              		.loc 1 447 0 is_stmt 0 discriminator 1
 223 0084 BDF81230 		ldrh	r3, [sp, #18]
 224 0088 83B9     		cbnz	r3, .L9
 225              		.loc 1 447 0 discriminator 2
 226 008a BDF81430 		ldrh	r3, [sp, #20]
 227 008e 6BB9     		cbnz	r3, .L9
 228              		.loc 1 447 0 discriminator 3
 229 0090 BDF81630 		ldrh	r3, [sp, #22]
 230 0094 53B9     		cbnz	r3, .L9
 231              		.loc 1 447 0 discriminator 4
 232 0096 BDF81830 		ldrh	r3, [sp, #24]
 233 009a 3BB9     		cbnz	r3, .L9
 234              		.loc 1 447 0 discriminator 5
ARM GAS  C:\Users\johan\AppData\Local\Temp\cc673VRW.s 			page 13


 235 009c BDF81A30 		ldrh	r3, [sp, #26]
 236 00a0 23B9     		cbnz	r3, .L9
 237              		.loc 1 447 0 discriminator 6
 238 00a2 1CB9     		cbnz	r4, .L9
 448:main.c        ****             motor_forward(30,1);
 239              		.loc 1 448 0 is_stmt 1
 240 00a4 0121     		movs	r1, #1
 241 00a6 1E20     		movs	r0, #30
 242 00a8 FFF7FEFF 		bl	motor_forward
 243              	.LVL28:
 244              	.L9:
 449:main.c        ****         }
 450:main.c        ****         
 451:main.c        ****         // JOS OLLAAN PÄÄSTY VALKOISELLE ALUEELLA VOIDAAN LISÄTÄ MUSTAAN LASKURIIN
 452:main.c        ****         if(dig.l3 == 0 && dig.r3 == 0){
 245              		.loc 1 452 0
 246 00ac BDF81030 		ldrh	r3, [sp, #16]
 247 00b0 43B9     		cbnz	r3, .L10
 248              		.loc 1 452 0 is_stmt 0 discriminator 1
 249 00b2 BDF81A30 		ldrh	r3, [sp, #26]
 250 00b6 2BB9     		cbnz	r3, .L10
 453:main.c        ****             motor_forward(30,3);   
 251              		.loc 1 453 0 is_stmt 1
 252 00b8 0321     		movs	r1, #3
 253 00ba 1E20     		movs	r0, #30
 254 00bc FFF7FEFF 		bl	motor_forward
 255              	.LVL29:
 454:main.c        ****             increment_mustan_lasku = true;
 256              		.loc 1 454 0
 257 00c0 4FF00108 		mov	r8, #1
 258              	.LVL30:
 259              	.L10:
 455:main.c        ****         }
 456:main.c        ****         // VÄRILLISET VAIHTOEHDOT (eka musta)
 457:main.c        ****         if(dig.l3 == 1 && dig.l2 == 1 && dig.l1 == 1 && dig.r1 == 1 && dig.r2 == 1 && dig.r3 == 1 )
 260              		.loc 1 457 0
 261 00c4 BDF81020 		ldrh	r2, [sp, #16]
 262 00c8 012A     		cmp	r2, #1
 263 00ca 6DD1     		bne	.L11
 264              		.loc 1 457 0 is_stmt 0 discriminator 1
 265 00cc BDF81230 		ldrh	r3, [sp, #18]
 266 00d0 012B     		cmp	r3, #1
 267 00d2 69D1     		bne	.L11
 268              		.loc 1 457 0 discriminator 2
 269 00d4 BDF81430 		ldrh	r3, [sp, #20]
 270 00d8 012B     		cmp	r3, #1
 271 00da 65D1     		bne	.L11
 272              		.loc 1 457 0 discriminator 3
 273 00dc BDF81630 		ldrh	r3, [sp, #22]
 274 00e0 012B     		cmp	r3, #1
 275 00e2 61D1     		bne	.L11
 276              		.loc 1 457 0 discriminator 4
 277 00e4 BDF81830 		ldrh	r3, [sp, #24]
 278 00e8 012B     		cmp	r3, #1
 279 00ea 5DD1     		bne	.L11
 280              		.loc 1 457 0 discriminator 5
 281 00ec BDF81A30 		ldrh	r3, [sp, #26]
ARM GAS  C:\Users\johan\AppData\Local\Temp\cc673VRW.s 			page 14


 282 00f0 012B     		cmp	r3, #1
 283 00f2 59D1     		bne	.L11
 458:main.c        ****             if(increment_mustan_lasku){
 284              		.loc 1 458 0 is_stmt 1
 285 00f4 B8F1000F 		cmp	r8, #0
 286 00f8 08D0     		beq	.L12
 459:main.c        ****                 mustan_lasku = (int)mustan_lasku + 1;   
 287              		.loc 1 459 0
 288 00fa 2846     		mov	r0, r5
 289 00fc FFF7FEFF 		bl	__aeabi_f2iz
 290              	.LVL31:
 291 0100 0130     		adds	r0, r0, #1
 292 0102 FFF7FEFF 		bl	__aeabi_i2f
 293              	.LVL32:
 294 0106 0546     		mov	r5, r0
 295              	.LVL33:
 460:main.c        ****                 increment_mustan_lasku = false;
 296              		.loc 1 460 0
 297 0108 4FF00008 		mov	r8, #0
 298              	.LVL34:
 299              	.L12:
 461:main.c        ****             }
 462:main.c        ****             // pysähtyy ekassa koko mustassa
 463:main.c        ****             if(mustan_lasku == 1){
 300              		.loc 1 463 0
 301 010c 4FF07E51 		mov	r1, #1065353216
 302 0110 2846     		mov	r0, r5
 303 0112 FFF7FEFF 		bl	__aeabi_fcmpeq
 304              	.LVL35:
 305 0116 70B1     		cbz	r0, .L33
 464:main.c        ****                 printf("Got here");
 306              		.loc 1 464 0
 307 0118 5848     		ldr	r0, .L35+12
 308 011a FFF7FEFF 		bl	printf
 309              	.LVL36:
 465:main.c        ****                 motor_forward(0,0);
 310              		.loc 1 465 0
 311 011e 0021     		movs	r1, #0
 312 0120 0846     		mov	r0, r1
 313 0122 FFF7FEFF 		bl	motor_forward
 314              	.LVL37:
 466:main.c        ****                 mustan_lasku++;
 315              		.loc 1 466 0
 316 0126 4FF07E51 		mov	r1, #1065353216
 317 012a 2846     		mov	r0, r5
 318 012c FFF7FEFF 		bl	__aeabi_fadd
 319              	.LVL38:
 320 0130 0546     		mov	r5, r0
 321              	.LVL39:
 467:main.c        ****                 robot_state = STOP;
 322              		.loc 1 467 0
 323 0132 0124     		movs	r4, #1
 324 0134 8FE0     		b	.L15
 325              	.LVL40:
 326              	.L33:
 468:main.c        ****                     
 469:main.c        ****             } //TEHTÄVÄ 1 ja 3,Tarkistaa jos musta laskuri on yli tai ali halutun pysähdys kohda
ARM GAS  C:\Users\johan\AppData\Local\Temp\cc673VRW.s 			page 15


 470:main.c        ****             /*else if (robot_state == START && mustan_lasku <= pysahdys_kohta) {
 471:main.c        ****                motor_forward(30,1);
 472:main.c        ****             } else if (mustan_lasku > pysahdys_kohta) {
 473:main.c        ****             motor_forward(0,0);
 474:main.c        ****             mustan_lasku = 0;
 475:main.c        ****             robot_state = STOP;
 476:main.c        ****             } */
 477:main.c        ****             // Tehtävä 2
 478:main.c        ****             else if (robot_state == START && mustan_lasku == 2) {
 327              		.loc 1 478 0
 328 0136 54B9     		cbnz	r4, .L16
 329              		.loc 1 478 0 is_stmt 0 discriminator 1
 330 0138 4FF08041 		mov	r1, #1073741824
 331 013c 2846     		mov	r0, r5
 332 013e FFF7FEFF 		bl	__aeabi_fcmpeq
 333              	.LVL41:
 334 0142 20B1     		cbz	r0, .L16
 479:main.c        ****              motor_forward(60,1);
 335              		.loc 1 479 0 is_stmt 1
 336 0144 0121     		movs	r1, #1
 337 0146 3C20     		movs	r0, #60
 338 0148 FFF7FEFF 		bl	motor_forward
 339              	.LVL42:
 340 014c 83E0     		b	.L15
 341              	.L16:
 480:main.c        ****             }else if (robot_state == START && mustan_lasku == 3) {
 342              		.loc 1 480 0
 343 014e 74B9     		cbnz	r4, .L18
 344              		.loc 1 480 0 is_stmt 0 discriminator 1
 345 0150 4B49     		ldr	r1, .L35+16
 346 0152 2846     		mov	r0, r5
 347 0154 FFF7FEFF 		bl	__aeabi_fcmpeq
 348              	.LVL43:
 349 0158 48B1     		cbz	r0, .L18
 481:main.c        ****                printf("first turn");
 350              		.loc 1 481 0 is_stmt 1
 351 015a 4A48     		ldr	r0, .L35+20
 352 015c FFF7FEFF 		bl	printf
 353              	.LVL44:
 482:main.c        ****                
 483:main.c        ****                motor_turn_left(60,100,300);
 354              		.loc 1 483 0
 355 0160 4FF49672 		mov	r2, #300
 356 0164 6421     		movs	r1, #100
 357 0166 3C20     		movs	r0, #60
 358 0168 FFF7FEFF 		bl	motor_turn_left
 359              	.LVL45:
 360 016c 73E0     		b	.L15
 361              	.L18:
 484:main.c        ****             } else if (robot_state == START && mustan_lasku <= 5) {
 362              		.loc 1 484 0
 363 016e 74B9     		cbnz	r4, .L20
 364              		.loc 1 484 0 is_stmt 0 discriminator 1
 365 0170 4549     		ldr	r1, .L35+24
 366 0172 2846     		mov	r0, r5
 367 0174 FFF7FEFF 		bl	__aeabi_fcmple
 368              	.LVL46:
ARM GAS  C:\Users\johan\AppData\Local\Temp\cc673VRW.s 			page 16


 369 0178 48B1     		cbz	r0, .L20
 485:main.c        ****                printf("secound");
 370              		.loc 1 485 0 is_stmt 1
 371 017a 4448     		ldr	r0, .L35+28
 372 017c FFF7FEFF 		bl	printf
 373              	.LVL47:
 486:main.c        ****                 
 487:main.c        ****                motor_turn_right(100,60,300);
 374              		.loc 1 487 0
 375 0180 4FF49672 		mov	r2, #300
 376 0184 3C21     		movs	r1, #60
 377 0186 6420     		movs	r0, #100
 378 0188 FFF7FEFF 		bl	motor_turn_right
 379              	.LVL48:
 380 018c 63E0     		b	.L15
 381              	.L20:
 488:main.c        ****             } 
 489:main.c        ****             else if (mustan_lasku > pysahdys_kohta) {
 382              		.loc 1 489 0
 383 018e 3E49     		ldr	r1, .L35+24
 384 0190 2846     		mov	r0, r5
 385 0192 FFF7FEFF 		bl	__aeabi_fcmpgt
 386              	.LVL49:
 387 0196 0028     		cmp	r0, #0
 388 0198 5DD0     		beq	.L15
 490:main.c        ****             motor_forward(0,0);
 389              		.loc 1 490 0
 390 019a 0021     		movs	r1, #0
 391 019c 0846     		mov	r0, r1
 392 019e FFF7FEFF 		bl	motor_forward
 393              	.LVL50:
 491:main.c        ****             mustan_lasku = 0;
 492:main.c        ****             robot_state = STOP;
 394              		.loc 1 492 0
 395 01a2 0124     		movs	r4, #1
 491:main.c        ****             mustan_lasku = 0;
 396              		.loc 1 491 0
 397 01a4 0025     		movs	r5, #0
 398 01a6 56E0     		b	.L15
 399              	.LVL51:
 400              	.L11:
 493:main.c        ****             }
 494:main.c        ****             
 495:main.c        ****         } else if(dig.l2 == 0 && dig.l1 == 1 && dig.r1 == 1 && dig.r2 == 0){
 401              		.loc 1 495 0
 402 01a8 BDF81230 		ldrh	r3, [sp, #18]
 403 01ac 7BB9     		cbnz	r3, .L23
 404              		.loc 1 495 0 is_stmt 0 discriminator 1
 405 01ae BDF81410 		ldrh	r1, [sp, #20]
 406 01b2 0129     		cmp	r1, #1
 407 01b4 0BD1     		bne	.L23
 408              		.loc 1 495 0 discriminator 2
 409 01b6 BDF81610 		ldrh	r1, [sp, #22]
 410 01ba 0129     		cmp	r1, #1
 411 01bc 07D1     		bne	.L23
 412              		.loc 1 495 0 discriminator 3
 413 01be BDF81810 		ldrh	r1, [sp, #24]
ARM GAS  C:\Users\johan\AppData\Local\Temp\cc673VRW.s 			page 17


 414 01c2 21B9     		cbnz	r1, .L23
 496:main.c        ****             //Seuraa keskimmäistä viivaa
 497:main.c        ****             motor_forward(60,1);
 415              		.loc 1 497 0 is_stmt 1
 416 01c4 0121     		movs	r1, #1
 417 01c6 3C20     		movs	r0, #60
 418 01c8 FFF7FEFF 		bl	motor_forward
 419              	.LVL52:
 420 01cc 43E0     		b	.L15
 421              	.L23:
 498:main.c        ****         } else if (dig.l2 == 0 && dig.l1 == 0 && dig.r1 == 1 && dig.r2 == 1) {
 422              		.loc 1 498 0
 423 01ce 83B9     		cbnz	r3, .L24
 424              		.loc 1 498 0 is_stmt 0 discriminator 1
 425 01d0 BDF81410 		ldrh	r1, [sp, #20]
 426 01d4 69B9     		cbnz	r1, .L24
 427              		.loc 1 498 0 discriminator 2
 428 01d6 BDF81610 		ldrh	r1, [sp, #22]
 429 01da 0129     		cmp	r1, #1
 430 01dc 09D1     		bne	.L24
 431              		.loc 1 498 0 discriminator 3
 432 01de BDF81810 		ldrh	r1, [sp, #24]
 433 01e2 0129     		cmp	r1, #1
 434 01e4 05D1     		bne	.L24
 499:main.c        ****             //Anturit r1 ja r2 mustat
 500:main.c        ****             motor_turn_right(60,60,1);
 435              		.loc 1 500 0 is_stmt 1
 436 01e6 0122     		movs	r2, #1
 437 01e8 3C21     		movs	r1, #60
 438 01ea 0846     		mov	r0, r1
 439 01ec FFF7FEFF 		bl	motor_turn_right
 440              	.LVL53:
 441 01f0 31E0     		b	.L15
 442              	.L24:
 501:main.c        ****         } else if(dig.l2 == 1 && dig.l1 == 1 && dig.r1 == 0 && dig.r2 == 0){
 443              		.loc 1 501 0
 444 01f2 012B     		cmp	r3, #1
 445 01f4 0FD1     		bne	.L25
 446              		.loc 1 501 0 is_stmt 0 discriminator 1
 447 01f6 BDF81410 		ldrh	r1, [sp, #20]
 448 01fa 0129     		cmp	r1, #1
 449 01fc 0BD1     		bne	.L25
 450              		.loc 1 501 0 discriminator 2
 451 01fe BDF81610 		ldrh	r1, [sp, #22]
 452 0202 41B9     		cbnz	r1, .L25
 453              		.loc 1 501 0 discriminator 3
 454 0204 BDF81810 		ldrh	r1, [sp, #24]
 455 0208 29B9     		cbnz	r1, .L25
 502:main.c        ****             //l2 ja l1 ovat mustat
 503:main.c        ****             motor_turn_left(60,60,1);
 456              		.loc 1 503 0 is_stmt 1
 457 020a 0122     		movs	r2, #1
 458 020c 3C21     		movs	r1, #60
 459 020e 0846     		mov	r0, r1
 460 0210 FFF7FEFF 		bl	motor_turn_left
 461              	.LVL54:
 462 0214 1FE0     		b	.L15
ARM GAS  C:\Users\johan\AppData\Local\Temp\cc673VRW.s 			page 18


 463              	.L25:
 504:main.c        ****         } else if (dig.l2 == 0 && dig.l1 == 0 && dig.r1 == 0 && dig.r3 == 1){
 464              		.loc 1 504 0
 465 0216 7BB9     		cbnz	r3, .L26
 466              		.loc 1 504 0 is_stmt 0 discriminator 1
 467 0218 BDF81430 		ldrh	r3, [sp, #20]
 468 021c 63B9     		cbnz	r3, .L26
 469              		.loc 1 504 0 discriminator 2
 470 021e BDF81630 		ldrh	r3, [sp, #22]
 471 0222 4BB9     		cbnz	r3, .L26
 472              		.loc 1 504 0 discriminator 3
 473 0224 BDF81A30 		ldrh	r3, [sp, #26]
 474 0228 012B     		cmp	r3, #1
 475 022a 05D1     		bne	.L26
 505:main.c        ****             //r2 ja r3 ovat mustat
 506:main.c        ****              motor_turn_right(60,60,1);
 476              		.loc 1 506 0 is_stmt 1
 477 022c 0122     		movs	r2, #1
 478 022e 3C21     		movs	r1, #60
 479 0230 0846     		mov	r0, r1
 480 0232 FFF7FEFF 		bl	motor_turn_right
 481              	.LVL55:
 482 0236 0EE0     		b	.L15
 483              	.L26:
 507:main.c        ****         } else if ( dig.l3 == 1  && dig.l1 == 0 && dig.r1 == 0 && dig.r2 == 0){
 484              		.loc 1 507 0
 485 0238 012A     		cmp	r2, #1
 486 023a 0CD1     		bne	.L15
 487              		.loc 1 507 0 is_stmt 0 discriminator 1
 488 023c BDF81430 		ldrh	r3, [sp, #20]
 489 0240 4BB9     		cbnz	r3, .L15
 490              		.loc 1 507 0 discriminator 2
 491 0242 BDF81630 		ldrh	r3, [sp, #22]
 492 0246 33B9     		cbnz	r3, .L15
 493              		.loc 1 507 0 discriminator 3
 494 0248 BDF81830 		ldrh	r3, [sp, #24]
 495 024c 1BB9     		cbnz	r3, .L15
 508:main.c        ****             // l3 ja l2 mustat
 509:main.c        ****              motor_turn_left(60,60,1);
 496              		.loc 1 509 0 is_stmt 1
 497 024e 3C21     		movs	r1, #60
 498 0250 0846     		mov	r0, r1
 499 0252 FFF7FEFF 		bl	motor_turn_left
 500              	.LVL56:
 501              	.L15:
 510:main.c        ****         } 
 511:main.c        ****         
 512:main.c        ****         printf("mustan_lasku : %f \r\n ", mustan_lasku); 
 502              		.loc 1 512 0
 503 0256 2846     		mov	r0, r5
 504 0258 FFF7FEFF 		bl	__aeabi_f2d
 505              	.LVL57:
 506 025c 0246     		mov	r2, r0
 507 025e 0B46     		mov	r3, r1
 508 0260 0B48     		ldr	r0, .L35+32
 509 0262 FFF7FEFF 		bl	printf
 510              	.LVL58:
ARM GAS  C:\Users\johan\AppData\Local\Temp\cc673VRW.s 			page 19


 513:main.c        ****         vTaskDelay(200);
 511              		.loc 1 513 0
 512 0266 C820     		movs	r0, #200
 513 0268 FFF7FEFF 		bl	vTaskDelay
 514              	.LVL59:
 514:main.c        ****     }
 515              		.loc 1 514 0
 516 026c DBE6     		b	.L27
 517              	.L36:
 518 026e 00BF     		.align	2
 519              	.L35:
 520 0270 00000000 		.word	.LC0
 521 0274 1C000000 		.word	.LC1
 522 0278 34000000 		.word	.LC2
 523 027c 48000000 		.word	.LC3
 524 0280 00004040 		.word	1077936128
 525 0284 54000000 		.word	.LC4
 526 0288 0000A040 		.word	1084227584
 527 028c 60000000 		.word	.LC5
 528 0290 68000000 		.word	.LC6
 529              		.cfi_endproc
 530              	.LFE87:
 531              		.size	zmain, .-zmain
 532              		.section	.rodata.str1.4,"aMS",%progbits,1
 533              		.align	2
 534              	.LC0:
 535 0000 25356420 		.ascii	"%5d %5d %5d %5d %5d %5d \015\012\000"
 535      25356420 
 535      25356420 
 535      25356420 
 535      25356420 
 536 001b 00       		.space	1
 537              	.LC1:
 538 001c 0D0A7374 		.ascii	"\015\012state before: %d\015\012\000"
 538      61746520 
 538      6265666F 
 538      72653A20 
 538      25640D0A 
 539 0031 000000   		.space	3
 540              	.LC2:
 541 0034 0D0A7374 		.ascii	"\015\012state after: %d\015\012\000"
 541      61746520 
 541      61667465 
 541      723A2025 
 541      640D0A00 
 542              	.LC3:
 543 0048 476F7420 		.ascii	"Got here\000"
 543      68657265 
 543      00
 544 0051 000000   		.space	3
 545              	.LC4:
 546 0054 66697273 		.ascii	"first turn\000"
 546      74207475 
 546      726E00
 547 005f 00       		.space	1
 548              	.LC5:
 549 0060 7365636F 		.ascii	"secound\000"
ARM GAS  C:\Users\johan\AppData\Local\Temp\cc673VRW.s 			page 20


 549      756E6400 
 550              	.LC6:
 551 0068 6D757374 		.ascii	"mustan_lasku : %f \015\012 \000"
 551      616E5F6C 
 551      61736B75 
 551      203A2025 
 551      66200D0A 
 552              		.text
 553              	.Letext0:
 554              		.file 2 "c:\\program files (x86)\\cypress\\psoc creator\\4.2\\psoc creator\\import\\gnu\\arm\\5.4.
 555              		.file 3 "c:\\program files (x86)\\cypress\\psoc creator\\4.2\\psoc creator\\import\\gnu\\arm\\5.4.
 556              		.file 4 "Generated_Source\\PSoC5/cytypes.h"
 557              		.file 5 ".\\ZumoLibrary/Reflectance.h"
 558              		.file 6 "Generated_Source\\PSoC5/MotorDirLeft.h"
 559              		.file 7 "Generated_Source\\PSoC5/MotorDirRight.h"
 560              		.file 8 "Generated_Source\\PSoC5/PWM.h"
 561              		.file 9 "..\\FreeRTOS\\Source\\include/task.h"
 562              		.file 10 "c:\\program files (x86)\\cypress\\psoc creator\\4.2\\psoc creator\\import\\gnu\\arm\\5.4
 563              		.file 11 "Generated_Source\\PSoC5/SW1.h"
 564              		.file 12 ".\\ZumoLibrary/Motor.h"
 565              		.file 13 "Generated_Source\\PSoC5/core_cm3.h"